; Function Attrs: mustprogress nofree nounwind uwtable
define i32 @pkpy_stack_size(ptr noundef %0) local_unnamed_addr #11 {
  %2 = getelementptr inbounds nuw i8, ptr %0, i64 264488
  %3 = load ptr, ptr %2, align 8
  %.not = icmp eq ptr %3, null
  br i1 %.not, label %4, label %34

4:                                                ; preds = %1
  %5 = getelementptr inbounds nuw i8, ptr %0, i64 264320
  %6 = load i32, ptr %5, align 8
  %7 = icmp eq i32 %6, 0
  br i1 %7, label %8, label %17

8:                                                ; preds = %4
  %9 = getelementptr inbounds nuw i8, ptr %0, i64 104
  %10 = getelementptr inbounds nuw i8, ptr %0, i64 264296
  %11 = load ptr, ptr %10, align 8
  %12 = ptrtoint ptr %11 to i64
  %13 = ptrtoint ptr %9 to i64
  %14 = sub i64 %12, %13
  %15 = lshr exact i64 %14, 3
  %16 = trunc i64 %15 to i32
  br label %34

17:                                               ; preds = %4
  %18 = getelementptr inbounds nuw i8, ptr %0, i64 264496
  %19 = load ptr, ptr %18, align 8
  %20 = getelementptr inbounds nuw i8, ptr %0, i64 264504
  %21 = load ptr, ptr %20, align 8
  %22 = icmp eq ptr %19, %21
  br i1 %22, label %23, label %24

23:                                               ; preds = %17
  tail call void @exit(i32 noundef 127) #34
  unreachable

24:                                               ; preds = %17
  %25 = getelementptr inbounds nuw i8, ptr %0, i64 264296
  %26 = load ptr, ptr %25, align 8
  %27 = getelementptr inbounds i8, ptr %21, i64 -16
  %28 = load ptr, ptr %27, align 8
  %29 = ptrtoint ptr %26 to i64
  %30 = ptrtoint ptr %28 to i64
  %31 = sub i64 %29, %30
  %32 = lshr exact i64 %31, 3
  %33 = trunc i64 %32 to i32
  br label %34

34:                                               ; preds = %1, %24, %8
  %.0 = phi i32 [ %16, %8 ], [ %33, %24 ], [ 0, %1 ]
  ret i32 %.0
}